target datalayout = "e-m:e-p270:32:32-p271:32:32-p272:64:64-i64:64-i128:128-f80:128-n8:16:32:64-S128"
target triple = "x86_64-pc-linux-gnu"

%"class.casadi::Sparsity" = type { %"class.casadi::SharedObject" }
%"class.casadi::SharedObject" = type { %"class.casadi::GenericShared" }
%"class.casadi::GenericShared" = type { ptr }
%"class.casadi::MXNode" = type { %"class.casadi::SharedObjectInternal", i64, %"class.std::vector", %"class.casadi::Sparsity" }
%"class.casadi::SharedObjectInternal" = type { %"class.casadi::GenericSharedInternal", i64 }
%"class.casadi::GenericSharedInternal" = type { ptr, ptr }
%"class.std::vector" = type { %"struct.std::_Vector_base" }
%"struct.std::_Vector_base" = type { %"struct.std::_Vector_base<casadi::MX, std::allocator<casadi::MX>>::_Vector_impl" }
%"struct.std::_Vector_base<casadi::MX, std::allocator<casadi::MX>>::_Vector_impl" = type { %"struct.std::_Vector_base<casadi::MX, std::allocator<casadi::MX>>::_Vector_impl_data" }
%"struct.std::_Vector_base<casadi::MX, std::allocator<casadi::MX>>::_Vector_impl_data" = type { ptr, ptr, ptr }
%"class.casadi::HorzRepsum" = type { %"class.casadi::MXNode", i64 }

; Function Attrs: inlinehint mustprogress nounwind uwtable
define linkonce_odr void @_ZSt9__fill_a1IPyiEN9__gnu_cxx11__enable_ifIXsr11__is_scalarIT0_EE7__valueEvE6__typeET_S6_RKS3_(ptr noundef %0, ptr noundef %1, ptr noundef nonnull align 4 dereferenceable(4) %2) #8 comdat {
  %4 = alloca ptr, align 8
  %5 = alloca ptr, align 8
  %6 = alloca ptr, align 8
  %7 = alloca i32, align 4
  store ptr %0, ptr %4, align 8, !tbaa !46
  store ptr %1, ptr %5, align 8, !tbaa !46
  store ptr %2, ptr %6, align 8, !tbaa !72
  call void @llvm.lifetime.start.p0(i64 4, ptr %7) #3
  %8 = load ptr, ptr %6, align 8, !tbaa !72
  %9 = load i32, ptr %8, align 4, !tbaa !64
  store i32 %9, ptr %7, align 4, !tbaa !64
  br label %10

10:                                               ; preds = %18, %3
  %11 = load ptr, ptr %4, align 8, !tbaa !46
  %12 = load ptr, ptr %5, align 8, !tbaa !46
  %13 = icmp ne ptr %11, %12
  br i1 %13, label %14, label %21

14:                                               ; preds = %10
  %15 = load i32, ptr %7, align 4, !tbaa !64
  %16 = sext i32 %15 to i64
  %17 = load ptr, ptr %4, align 8, !tbaa !46
  store i64 %16, ptr %17, align 8, !tbaa !10
  br label %18

18:                                               ; preds = %14
  %19 = load ptr, ptr %4, align 8, !tbaa !46
  %20 = getelementptr inbounds nuw i64, ptr %19, i32 1
  store ptr %20, ptr %4, align 8, !tbaa !46
  br label %10, !llvm.loop !261

21:                                               ; preds = %10
  call void @llvm.lifetime.end.p0(i64 4, ptr %7) #3
  ret void
}

; Function Attrs: inlinehint mustprogress uwtable
define linkonce_odr void @_ZSt8__fill_aIPyiEvT_S1_RKT0_(ptr noundef %0, ptr noundef %1, ptr noundef nonnull align 4 dereferenceable(4) %2) #6 comdat {
  %4 = alloca ptr, align 8
  %5 = alloca ptr, align 8
  %6 = alloca ptr, align 8
  store ptr %0, ptr %4, align 8, !tbaa !46
  store ptr %1, ptr %5, align 8, !tbaa !46
  store ptr %2, ptr %6, align 8, !tbaa !72
  %7 = load ptr, ptr %4, align 8, !tbaa !46
  %8 = load ptr, ptr %5, align 8, !tbaa !46
  %9 = load ptr, ptr %6, align 8, !tbaa !72
  call void @_ZSt9__fill_a1IPyiEN9__gnu_cxx11__enable_ifIXsr11__is_scalarIT0_EE7__valueEvE6__typeET_S6_RKS3_(ptr noundef %7, ptr noundef %8, ptr noundef nonnull align 4 dereferenceable(4) %9)
  ret void
}

; Function Attrs: inlinehint mustprogress uwtable
define linkonce_odr void @_ZSt4fillIPyiEvT_S1_RKT0_(ptr noundef %0, ptr noundef %1, ptr noundef nonnull align 4 dereferenceable(4) %2) #6 comdat {
  %4 = alloca ptr, align 8
  %5 = alloca ptr, align 8
  %6 = alloca ptr, align 8
  store ptr %0, ptr %4, align 8, !tbaa !46
  store ptr %1, ptr %5, align 8, !tbaa !46
  store ptr %2, ptr %6, align 8, !tbaa !72
  %7 = load ptr, ptr %4, align 8, !tbaa !46
  %8 = load ptr, ptr %5, align 8, !tbaa !46
  %9 = load ptr, ptr %6, align 8, !tbaa !72
  call void @_ZSt8__fill_aIPyiEvT_S1_RKT0_(ptr noundef %7, ptr noundef %8, ptr noundef nonnull align 4 dereferenceable(4) %9)
  ret void
}

; Function Attrs: mustprogress uwtable
define linkonce_odr noundef ptr @_ZSt9transformIPyS0_S0_PFyyyEET1_T_S4_T0_S3_T2_(ptr noundef %0, ptr noundef %1, ptr noundef %2, ptr noundef %3, ptr noundef %4) #4 comdat {
  %6 = alloca ptr, align 8
  %7 = alloca ptr, align 8
  %8 = alloca ptr, align 8
  %9 = alloca ptr, align 8
  %10 = alloca ptr, align 8
  store ptr %0, ptr %6, align 8, !tbaa !46
  store ptr %1, ptr %7, align 8, !tbaa !46
  store ptr %2, ptr %8, align 8, !tbaa !46
  store ptr %3, ptr %9, align 8, !tbaa !46
  store ptr %4, ptr %10, align 8, !tbaa !70
  br label %11

11:                                               ; preds = %23, %5
  %12 = load ptr, ptr %6, align 8, !tbaa !46
  %13 = load ptr, ptr %7, align 8, !tbaa !46
  %14 = icmp ne ptr %12, %13
  br i1 %14, label %15, label %30

15:                                               ; preds = %11
  %16 = load ptr, ptr %10, align 8, !tbaa !70
  %17 = load ptr, ptr %6, align 8, !tbaa !46
  %18 = load i64, ptr %17, align 8, !tbaa !10
  %19 = load ptr, ptr %8, align 8, !tbaa !46
  %20 = load i64, ptr %19, align 8, !tbaa !10
  %21 = call noundef i64 %16(i64 noundef %18, i64 noundef %20)
  %22 = load ptr, ptr %9, align 8, !tbaa !46
  store i64 %21, ptr %22, align 8, !tbaa !10
  br label %23

23:                                               ; preds = %15
  %24 = load ptr, ptr %6, align 8, !tbaa !46
  %25 = getelementptr inbounds nuw i64, ptr %24, i32 1
  store ptr %25, ptr %6, align 8, !tbaa !46
  %26 = load ptr, ptr %8, align 8, !tbaa !46
  %27 = getelementptr inbounds nuw i64, ptr %26, i32 1
  store ptr %27, ptr %8, align 8, !tbaa !46
  %28 = load ptr, ptr %9, align 8, !tbaa !46
  %29 = getelementptr inbounds nuw i64, ptr %28, i32 1
  store ptr %29, ptr %9, align 8, !tbaa !46
  br label %11, !llvm.loop !71

30:                                               ; preds = %11
  %31 = load ptr, ptr %9, align 8, !tbaa !46
  ret ptr %31
}

; Function Attrs: mustprogress nounwind uwtable
define linkonce_odr hidden noundef nonnull align 8 dereferenceable(8) ptr @_ZNK6casadi6MXNode8sparsityEv(ptr noundef nonnull align 8 dereferenceable(64) %0) #7 comdat align 2 {
  %2 = alloca ptr, align 8
  store ptr %0, ptr %2, align 8, !tbaa !66
  %3 = load ptr, ptr %2, align 8
  %4 = getelementptr inbounds nuw %"class.casadi::MXNode", ptr %3, i32 0, i32 3
  ret ptr %4
}

; Function Attrs: mustprogress uwtable
define noundef i32 @_ZNK6casadi10HorzRepsum10sp_reverseEPPyS2_PxS1_(ptr noundef nonnull align 8 dereferenceable(72) %0, ptr noundef %1, ptr noundef %2, ptr noundef %3, ptr noundef %4) unnamed_addr #4 align 2 {
  %6 = alloca ptr, align 8
  %7 = alloca ptr, align 8
  %8 = alloca ptr, align 8
  %9 = alloca ptr, align 8
  %10 = alloca ptr, align 8
  %11 = alloca i64, align 8
  %12 = alloca i64, align 8
  %13 = alloca i32, align 4
  store ptr %0, ptr %6, align 8, !tbaa !99
  store ptr %1, ptr %7, align 8, !tbaa !60
  store ptr %2, ptr %8, align 8, !tbaa !60
  store ptr %3, ptr %9, align 8, !tbaa !46
  store ptr %4, ptr %10, align 8, !tbaa !46
  %14 = load ptr, ptr %6, align 8
  call void @llvm.lifetime.start.p0(i64 8, ptr %11) #3
  %15 = call noundef nonnull align 8 dereferenceable(8) ptr @_ZNK6casadi6MXNode8sparsityEv(ptr noundef nonnull align 8 dereferenceable(64) %14)
  %16 = call noundef i64 @_ZNK6casadi8Sparsity3nnzEv(ptr noundef nonnull align 8 dereferenceable(8) %15)
  store i64 %16, ptr %11, align 8, !tbaa !10
  call void @llvm.lifetime.start.p0(i64 8, ptr %12) #3
  store i64 0, ptr %12, align 8, !tbaa !10
  br label %17

17:                                               ; preds = %47, %5
  %18 = load i64, ptr %12, align 8, !tbaa !10
  %19 = getelementptr inbounds nuw %"class.casadi::HorzRepsum", ptr %14, i32 0, i32 1
  %20 = load i64, ptr %19, align 8, !tbaa !101
  %21 = icmp slt i64 %18, %20
  br i1 %21, label %23, label %22

22:                                               ; preds = %17
  call void @llvm.lifetime.end.p0(i64 8, ptr %12) #3
  br label %50

23:                                               ; preds = %17
  %24 = load ptr, ptr %8, align 8, !tbaa !60
  %25 = getelementptr inbounds ptr, ptr %24, i64 0
  %26 = load ptr, ptr %25, align 8, !tbaa !46
  %27 = load ptr, ptr %8, align 8, !tbaa !60
  %28 = getelementptr inbounds ptr, ptr %27, i64 0
  %29 = load ptr, ptr %28, align 8, !tbaa !46
  %30 = load i64, ptr %11, align 8, !tbaa !10
  %31 = getelementptr inbounds i64, ptr %29, i64 %30
  %32 = load ptr, ptr %7, align 8, !tbaa !60
  %33 = getelementptr inbounds ptr, ptr %32, i64 0
  %34 = load ptr, ptr %33, align 8, !tbaa !46
  %35 = load i64, ptr %12, align 8, !tbaa !10
  %36 = load i64, ptr %11, align 8, !tbaa !10
  %37 = mul nsw i64 %35, %36
  %38 = getelementptr inbounds i64, ptr %34, i64 %37
  %39 = load ptr, ptr %7, align 8, !tbaa !60
  %40 = getelementptr inbounds ptr, ptr %39, i64 0
  %41 = load ptr, ptr %40, align 8, !tbaa !46
  %42 = load i64, ptr %12, align 8, !tbaa !10
  %43 = load i64, ptr %11, align 8, !tbaa !10
  %44 = mul nsw i64 %42, %43
  %45 = getelementptr inbounds i64, ptr %41, i64 %44
  %46 = call noundef ptr @_ZSt9transformIPyS0_S0_PFyyyEET1_T_S4_T0_S3_T2_(ptr noundef %26, ptr noundef %31, ptr noundef %38, ptr noundef %45, ptr noundef @_ZN6casadiL6OrringEyy)
  br label %47

47:                                               ; preds = %23
  %48 = load i64, ptr %12, align 8, !tbaa !10
  %49 = add nsw i64 %48, 1
  store i64 %49, ptr %12, align 8, !tbaa !10
  br label %17, !llvm.loop !117

50:                                               ; preds = %22
  %51 = load ptr, ptr %8, align 8, !tbaa !60
  %52 = getelementptr inbounds ptr, ptr %51, i64 0
  %53 = load ptr, ptr %52, align 8, !tbaa !46
  %54 = load ptr, ptr %8, align 8, !tbaa !60
  %55 = getelementptr inbounds ptr, ptr %54, i64 0
  %56 = load ptr, ptr %55, align 8, !tbaa !46
  %57 = load i64, ptr %11, align 8, !tbaa !10
  %58 = getelementptr inbounds i64, ptr %56, i64 %57
  call void @llvm.lifetime.start.p0(i64 4, ptr %13) #3
  store i32 0, ptr %13, align 4, !tbaa !64
  call void @_ZSt4fillIPyiEvT_S1_RKT0_(ptr noundef %53, ptr noundef %58, ptr noundef nonnull align 4 dereferenceable(4) %13)
  call void @llvm.lifetime.end.p0(i64 4, ptr %13) #3
  call void @llvm.lifetime.end.p0(i64 8, ptr %11) #3
  ret i32 0
}