; Function Attrs: mustprogress uwtable
define noundef i32 @_ZNK6casadi10HorzRepsum10sp_reverseEPPyS2_PxS1_(ptr noundef nonnull align 8 dereferenceable(72) %0, ptr noundef readonly captures(none) %1, ptr noundef readonly captures(none) %2, ptr readnone captures(none) %3, ptr readnone captures(none) %4) unnamed_addr #3 align 2 {
  %6 = getelementptr inbounds nuw i8, ptr %0, i64 56
  %7 = tail call noundef i64 @_ZNK6casadi8Sparsity3nnzEv(ptr noundef nonnull align 8 dereferenceable(8) %6)
  %8 = getelementptr inbounds nuw i8, ptr %0, i64 64
  %9 = load i64, ptr %8, align 8, !tbaa !113
  %10 = icmp sgt i64 %9, 0
  %.pre = load ptr, ptr %2, align 8, !tbaa !60
  br i1 %10, label %.lr.ph, label %._crit_edge

.lr.ph:                                           ; preds = %5
  %11 = getelementptr inbounds i64, ptr %.pre, i64 %7
  %12 = load ptr, ptr %1, align 8, !tbaa !60
  %.not12.i = icmp eq i64 %7, 0
  br i1 %.not12.i, label %_ZSt4fillIPyiEvT_S1_RKT0_.exit, label %.lr.ph.i.preheader

._crit_edge:                                      ; preds = %_ZSt9transformIPyS0_S0_PFyyyEET1_T_S4_T0_S3_T2_.exit.loopexit, %5
  %.not5.i.i.i = icmp eq i64 %7, 0
  br i1 %.not5.i.i.i, label %_ZSt4fillIPyiEvT_S1_RKT0_.exit, label %.lr.ph.i.i.i.preheader

.lr.ph.i.i.i.preheader:                           ; preds = %._crit_edge
  %13 = shl i64 %7, 3
  tail call void @llvm.memset.p0.i64(ptr align 8 %.pre, i8 0, i64 %13, i1 false), !tbaa !63
  br label %_ZSt4fillIPyiEvT_S1_RKT0_.exit

_ZSt4fillIPyiEvT_S1_RKT0_.exit:                   ; preds = %.lr.ph, %.lr.ph.i.i.i.preheader, %._crit_edge
  ret i32 0

.lr.ph.i.preheader:                               ; preds = %.lr.ph, %_ZSt9transformIPyS0_S0_PFyyyEET1_T_S4_T0_S3_T2_.exit.loopexit
  %.014 = phi i64 [ %21, %_ZSt9transformIPyS0_S0_PFyyyEET1_T_S4_T0_S3_T2_.exit.loopexit ], [ 0, %.lr.ph ]
  %14 = mul nsw i64 %.014, %7
  %15 = getelementptr inbounds i64, ptr %12, i64 %14
  br label %.lr.ph.i

.lr.ph.i:                                         ; preds = %.lr.ph.i.preheader, %.lr.ph.i
  %.015.i = phi ptr [ %19, %.lr.ph.i ], [ %.pre, %.lr.ph.i.preheader ]
  %.01014.i = phi ptr [ %20, %.lr.ph.i ], [ %15, %.lr.ph.i.preheader ]
  %16 = load i64, ptr %.015.i, align 8, !tbaa !63
  %17 = load i64, ptr %.01014.i, align 8, !tbaa !63
  %18 = or i64 %17, %16
  store i64 %18, ptr %.01014.i, align 8, !tbaa !63
  %19 = getelementptr inbounds nuw i8, ptr %.015.i, i64 8
  %20 = getelementptr i8, ptr %.01014.i, i64 8
  %.not.i = icmp eq ptr %19, %11
  br i1 %.not.i, label %_ZSt9transformIPyS0_S0_PFyyyEET1_T_S4_T0_S3_T2_.exit.loopexit, label %.lr.ph.i, !llvm.loop !64

_ZSt9transformIPyS0_S0_PFyyyEET1_T_S4_T0_S3_T2_.exit.loopexit: ; preds = %.lr.ph.i
  %21 = add nuw nsw i64 %.014, 1
  %22 = load i64, ptr %8, align 8, !tbaa !113
  %23 = icmp slt i64 %21, %22
  br i1 %23, label %.lr.ph.i.preheader, label %._crit_edge, !llvm.loop !145
}